target datalayout = "e-m:e-p270:32:32-p271:32:32-p272:64:64-i64:64-i128:128-f80:128-n8:16:32:64-S128"
target triple = "x86_64-pc-linux-gnu"

%struct.ssl_st = type { i32, i16, i16, ptr, ptr, ptr, ptr, ptr, i32, i32, ptr, ptr, i32, i32, ptr, ptr, ptr, ptr, ptr, ptr, ptr, ptr, i32, i32, [32 x i8], ptr, ptr, ptr, ptr, ptr, ptr, ptr, i64, %struct.crypto_ex_data_st, ptr, i32, i32, i32, i32, i16, ptr, i32, i64, ptr, ptr, ptr, ptr, ptr, ptr, i32, i32, ptr, ptr, i8, i8, i32 }
%struct.crypto_ex_data_st = type { ptr }
%struct.ssl_protocol_method_st = type { i8, ptr, ptr, ptr, ptr, ptr, ptr, ptr, ptr, ptr, ptr, ptr, i32, ptr, ptr }
%struct.ssl3_state_st = type { [8 x i8], [8 x i8], [32 x i8], [32 x i8], i8, i8, %struct.ssl3_buffer_st, %struct.ssl3_buffer_st, %struct.ssl3_record_st, i8, i32, i32, i32, i32, ptr, ptr, %struct.env_md_ctx_st, %struct.env_md_ctx_st, i8, i32, [2 x i8], i32, i8, i8, ptr, ptr, ptr, %struct.anon, [64 x i8], i8, [64 x i8], i8, i32, i32, ptr, i64, ptr, i64, i8, [64 x i8] }
%struct.ssl3_buffer_st = type { ptr, i16, i16, i16 }
%struct.ssl3_record_st = type { i8, i16, ptr }
%struct.env_md_ctx_st = type { ptr, ptr, ptr, ptr }
%struct.anon = type { [64 x i8], i32, [64 x i8], i32, i64, i32, ptr, i32, i32, %union.anon, %union.anon.0, i8, i32, ptr, ptr, i64, ptr, i8, i8, i8, i8, i32, i8, ptr, i64, i8, ptr, i8, i8, i8, %struct.ssl_ecdh_ctx_st, ptr, i16 }
%union.anon = type { i32 }
%union.anon.0 = type { i16 }
%struct.ssl_ecdh_ctx_st = type { ptr, ptr }
%struct.tls_extension = type { i16, ptr, ptr, ptr, ptr, ptr }
%struct.cbb_st = type { ptr, ptr, i64, i8, i8, i8 }

@.str = private unnamed_addr constant [116 x i8] c"generated/home/dtcxzyw/WorkSpace/Projects/compilers/llvm-opt-benchmark/bench/libquic/libquic/boringssl/ssl/t1_lib.c\00", align 1
@.str.1 = private unnamed_addr constant [14 x i8] c"extension: %u\00", align 1

; Function Attrs: nounwind uwtable
define hidden i32 @ssl_add_clienthello_tlsext(ptr noundef %0, ptr noundef %1, i64 noundef %2) #0 {
  %4 = alloca i32, align 4
  %5 = alloca ptr, align 8
  %6 = alloca ptr, align 8
  %7 = alloca i64, align 8
  %8 = alloca %struct.cbb_st, align 8
  %9 = alloca i64, align 8
  %10 = alloca i64, align 8
  %11 = alloca i32, align 4
  %12 = alloca i64, align 8
  %13 = alloca ptr, align 8
  store ptr %0, ptr %5, align 8, !tbaa !69
  store ptr %1, ptr %6, align 8, !tbaa !128
  store i64 %2, ptr %7, align 8, !tbaa !56
  %14 = load ptr, ptr %5, align 8, !tbaa !69
  %15 = getelementptr inbounds nuw %struct.ssl_st, ptr %14, i32 0, i32 38
  %16 = load i32, ptr %15, align 4, !tbaa !130
  %17 = icmp eq i32 %16, 768
  br i1 %17, label %18, label %26

18:                                               ; preds = %3
  %19 = load ptr, ptr %5, align 8, !tbaa !69
  %20 = getelementptr inbounds nuw %struct.ssl_st, ptr %19, i32 0, i32 14
  %21 = load ptr, ptr %20, align 8, !tbaa !75
  %22 = getelementptr inbounds nuw %struct.ssl3_state_st, ptr %21, i32 0, i32 32
  %23 = load i32, ptr %22, align 4, !tbaa !131
  %24 = icmp ne i32 %23, 0
  br i1 %24, label %26, label %25

25:                                               ; preds = %18
  store i32 1, ptr %4, align 4
  br label %163

26:                                               ; preds = %18, %3
  call void @llvm.lifetime.start.p0(i64 32, ptr %8) #8
  %27 = load ptr, ptr %6, align 8, !tbaa !128
  %28 = call i32 @CBB_add_u16_length_prefixed(ptr noundef %27, ptr noundef %8)
  %29 = icmp ne i32 %28, 0
  br i1 %29, label %31, label %30

30:                                               ; preds = %26
  br label %161

31:                                               ; preds = %26
  %32 = load ptr, ptr %5, align 8, !tbaa !69
  %33 = getelementptr inbounds nuw %struct.ssl_st, ptr %32, i32 0, i32 14
  %34 = load ptr, ptr %33, align 8, !tbaa !75
  %35 = getelementptr inbounds nuw %struct.ssl3_state_st, ptr %34, i32 0, i32 27
  %36 = getelementptr inbounds nuw %struct.anon, ptr %35, i32 0, i32 9
  store i32 0, ptr %36, align 8, !tbaa !103
  %37 = load ptr, ptr %5, align 8, !tbaa !69
  %38 = getelementptr inbounds nuw %struct.ssl_st, ptr %37, i32 0, i32 14
  %39 = load ptr, ptr %38, align 8, !tbaa !75
  %40 = getelementptr inbounds nuw %struct.ssl3_state_st, ptr %39, i32 0, i32 27
  %41 = getelementptr inbounds nuw %struct.anon, ptr %40, i32 0, i32 10
  store i16 0, ptr %41, align 4, !tbaa !103
  store i64 0, ptr %9, align 8, !tbaa !56
  br label %42

42:                                               ; preds = %58, %31
  %43 = load i64, ptr %9, align 8, !tbaa !56
  %44 = icmp ult i64 %43, 13
  br i1 %44, label %45, label %61

45:                                               ; preds = %42
  %46 = load i64, ptr %9, align 8, !tbaa !56
  %47 = getelementptr inbounds nuw [13 x %struct.tls_extension], ptr @kExtensions, i64 0, i64 %46
  %48 = getelementptr inbounds nuw %struct.tls_extension, ptr %47, i32 0, i32 1
  %49 = load ptr, ptr %48, align 8, !tbaa !132
  %50 = icmp ne ptr %49, null
  br i1 %50, label %51, label %57

51:                                               ; preds = %45
  %52 = load i64, ptr %9, align 8, !tbaa !56
  %53 = getelementptr inbounds nuw [13 x %struct.tls_extension], ptr @kExtensions, i64 0, i64 %52
  %54 = getelementptr inbounds nuw %struct.tls_extension, ptr %53, i32 0, i32 1
  %55 = load ptr, ptr %54, align 8, !tbaa !132
  %56 = load ptr, ptr %5, align 8, !tbaa !69
  call void %55(ptr noundef %56)
  br label %57

57:                                               ; preds = %51, %45
  br label %58

58:                                               ; preds = %57
  %59 = load i64, ptr %9, align 8, !tbaa !56
  %60 = add i64 %59, 1
  store i64 %60, ptr %9, align 8, !tbaa !56
  br label %42, !llvm.loop !133

61:                                               ; preds = %42
  store i64 0, ptr %9, align 8, !tbaa !56
  br label %62

62:                                               ; preds = %99, %61
  %63 = load i64, ptr %9, align 8, !tbaa !56
  %64 = icmp ult i64 %63, 13
  br i1 %64, label %65, label %102

65:                                               ; preds = %62
  call void @llvm.lifetime.start.p0(i64 8, ptr %10) #8
  %66 = call i64 @CBB_len(ptr noundef %8)
  store i64 %66, ptr %10, align 8, !tbaa !56
  %67 = load i64, ptr %9, align 8, !tbaa !56
  %68 = getelementptr inbounds nuw [13 x %struct.tls_extension], ptr @kExtensions, i64 0, i64 %67
  %69 = getelementptr inbounds nuw %struct.tls_extension, ptr %68, i32 0, i32 2
  %70 = load ptr, ptr %69, align 16, !tbaa !134
  %71 = load ptr, ptr %5, align 8, !tbaa !69
  %72 = call i32 %70(ptr noundef %71, ptr noundef %8)
  %73 = icmp ne i32 %72, 0
  br i1 %73, label %80, label %74

74:                                               ; preds = %65
  call void @ERR_put_error(i32 noundef 16, i32 noundef 0, i32 noundef 147, ptr noundef @.str, i32 noundef 2069)
  %75 = load i64, ptr %9, align 8, !tbaa !56
  %76 = getelementptr inbounds nuw [13 x %struct.tls_extension], ptr @kExtensions, i64 0, i64 %75
  %77 = getelementptr inbounds nuw %struct.tls_extension, ptr %76, i32 0, i32 0
  %78 = load i16, ptr %77, align 16, !tbaa !125
  %79 = zext i16 %78 to i32
  call void (ptr, ...) @ERR_add_error_dataf(ptr noundef @.str.1, i32 noundef %79)
  store i32 2, ptr %11, align 4
  br label %96

80:                                               ; preds = %65
  %81 = call i64 @CBB_len(ptr noundef %8)
  %82 = load i64, ptr %10, align 8, !tbaa !56
  %83 = icmp ne i64 %81, %82
  br i1 %83, label %84, label %95

84:                                               ; preds = %80
  %85 = load i64, ptr %9, align 8, !tbaa !56
  %86 = trunc i64 %85 to i32
  %87 = shl i32 1, %86
  %88 = load ptr, ptr %5, align 8, !tbaa !69
  %89 = getelementptr inbounds nuw %struct.ssl_st, ptr %88, i32 0, i32 14
  %90 = load ptr, ptr %89, align 8, !tbaa !75
  %91 = getelementptr inbounds nuw %struct.ssl3_state_st, ptr %90, i32 0, i32 27
  %92 = getelementptr inbounds nuw %struct.anon, ptr %91, i32 0, i32 9
  %93 = load i32, ptr %92, align 8, !tbaa !103
  %94 = or i32 %93, %87
  store i32 %94, ptr %92, align 8, !tbaa !103
  br label %95

95:                                               ; preds = %84, %80
  store i32 0, ptr %11, align 4
  br label %96

96:                                               ; preds = %74, %95
  call void @llvm.lifetime.end.p0(i64 8, ptr %10) #8
  %97 = load i32, ptr %11, align 4
  switch i32 %97, label %162 [
    i32 0, label %98
    i32 2, label %161
  ]

98:                                               ; preds = %96
  br label %99

99:                                               ; preds = %98
  %100 = load i64, ptr %9, align 8, !tbaa !56
  %101 = add i64 %100, 1
  store i64 %101, ptr %9, align 8, !tbaa !56
  br label %62, !llvm.loop !135

102:                                              ; preds = %62
  %103 = load ptr, ptr %5, align 8, !tbaa !69
  %104 = call i32 @custom_ext_add_clienthello(ptr noundef %103, ptr noundef %8)
  %105 = icmp ne i32 %104, 0
  br i1 %105, label %107, label %106

106:                                              ; preds = %102
  br label %161

107:                                              ; preds = %102
  %108 = load ptr, ptr %5, align 8, !tbaa !69
  %109 = getelementptr inbounds nuw %struct.ssl_st, ptr %108, i32 0, i32 3
  %110 = load ptr, ptr %109, align 8, !tbaa !20
  %111 = getelementptr inbounds nuw %struct.ssl_protocol_method_st, ptr %110, i32 0, i32 0
  %112 = load i8, ptr %111, align 8, !tbaa !44
  %113 = icmp ne i8 %112, 0
  br i1 %113, label %153, label %114

114:                                              ; preds = %107
  %115 = call i64 @CBB_len(ptr noundef %8)
  %116 = add i64 2, %115
  %117 = load i64, ptr %7, align 8, !tbaa !56
  %118 = add i64 %117, %116
  store i64 %118, ptr %7, align 8, !tbaa !56
  %119 = load i64, ptr %7, align 8, !tbaa !56
  %120 = icmp ugt i64 %119, 255
  br i1 %120, label %121, label %152

121:                                              ; preds = %114
  %122 = load i64, ptr %7, align 8, !tbaa !56
  %123 = icmp ult i64 %122, 512
  br i1 %123, label %124, label %152

124:                                              ; preds = %121
  call void @llvm.lifetime.start.p0(i64 8, ptr %12) #8
  %125 = load i64, ptr %7, align 8, !tbaa !56
  %126 = sub i64 512, %125
  store i64 %126, ptr %12, align 8, !tbaa !56
  %127 = load i64, ptr %12, align 8, !tbaa !56
  %128 = icmp uge i64 %127, 5
  br i1 %128, label %129, label %132

129:                                              ; preds = %124
  %130 = load i64, ptr %12, align 8, !tbaa !56
  %131 = sub i64 %130, 4
  store i64 %131, ptr %12, align 8, !tbaa !56
  br label %133

132:                                              ; preds = %124
  store i64 1, ptr %12, align 8, !tbaa !56
  br label %133

133:                                              ; preds = %132, %129
  call void @llvm.lifetime.start.p0(i64 8, ptr %13) #8
  %134 = call i32 @CBB_add_u16(ptr noundef %8, i16 noundef zeroext 21)
  %135 = icmp ne i32 %134, 0
  br i1 %135, label %136, label %145

136:                                              ; preds = %133
  %137 = load i64, ptr %12, align 8, !tbaa !56
  %138 = trunc i64 %137 to i16
  %139 = call i32 @CBB_add_u16(ptr noundef %8, i16 noundef zeroext %138)
  %140 = icmp ne i32 %139, 0
  br i1 %140, label %141, label %145

141:                                              ; preds = %136
  %142 = load i64, ptr %12, align 8, !tbaa !56
  %143 = call i32 @CBB_add_space(ptr noundef %8, ptr noundef %13, i64 noundef %142)
  %144 = icmp ne i32 %143, 0
  br i1 %144, label %146, label %145

145:                                              ; preds = %141, %136, %133
  store i32 2, ptr %11, align 4
  br label %149

146:                                              ; preds = %141
  %147 = load ptr, ptr %13, align 8, !tbaa !55
  %148 = load i64, ptr %12, align 8, !tbaa !56
  call void @llvm.memset.p0.i64(ptr align 1 %147, i8 0, i64 %148, i1 false)
  store i32 0, ptr %11, align 4
  br label %149

149:                                              ; preds = %145, %146
  call void @llvm.lifetime.end.p0(i64 8, ptr %13) #8
  call void @llvm.lifetime.end.p0(i64 8, ptr %12) #8
  %150 = load i32, ptr %11, align 4
  switch i32 %150, label %162 [
    i32 0, label %151
    i32 2, label %161
  ]

151:                                              ; preds = %149
  br label %152

152:                                              ; preds = %151, %121, %114
  br label %153

153:                                              ; preds = %152, %107
  %154 = call i64 @CBB_len(ptr noundef %8)
  %155 = icmp eq i64 %154, 0
  br i1 %155, label %156, label %158

156:                                              ; preds = %153
  %157 = load ptr, ptr %6, align 8, !tbaa !128
  call void @CBB_discard_child(ptr noundef %157)
  br label %158

158:                                              ; preds = %156, %153
  %159 = load ptr, ptr %6, align 8, !tbaa !128
  %160 = call i32 @CBB_flush(ptr noundef %159)
  store i32 %160, ptr %4, align 4
  store i32 1, ptr %11, align 4
  br label %162

161:                                              ; preds = %149, %96, %106, %30
  call void @ERR_put_error(i32 noundef 16, i32 noundef 0, i32 noundef 68, ptr noundef @.str, i32 noundef 2120)
  store i32 0, ptr %4, align 4
  store i32 1, ptr %11, align 4
  br label %162

162:                                              ; preds = %161, %158, %149, %96
  call void @llvm.lifetime.end.p0(i64 32, ptr %8) #8
  br label %163

163:                                              ; preds = %162, %25
  %164 = load i32, ptr %4, align 4
  ret i32 %164
}