; Function Attrs: nounwind uwtable
define hidden i32 @ssl_add_clienthello_tlsext(ptr noundef %0, ptr noundef %1, i64 noundef %2) local_unnamed_addr #0 {
  %4 = alloca %struct.cbb_st, align 8
  %5 = alloca ptr, align 8
  %6 = getelementptr inbounds nuw i8, ptr %0, i64 276
  %7 = load i32, ptr %6, align 4, !tbaa !109
  %8 = icmp eq i32 %7, 768
  br i1 %8, label %9, label %14

9:                                                ; preds = %3
  %10 = getelementptr inbounds nuw i8, ptr %0, i64 80
  %11 = load ptr, ptr %10, align 8, !tbaa !58
  %12 = getelementptr inbounds nuw i8, ptr %11, i64 724
  %13 = load i32, ptr %12, align 4, !tbaa !110
  %.not = icmp eq i32 %13, 0
  br i1 %.not, label %77, label %14

14:                                               ; preds = %9, %3
  call void @llvm.lifetime.start.p0(i64 32, ptr nonnull %4) #21
  %15 = call i32 @CBB_add_u16_length_prefixed(ptr noundef %1, ptr noundef nonnull %4) #21
  %.not42 = icmp eq i32 %15, 0
  br i1 %.not42, label %75, label %16

16:                                               ; preds = %14
  %17 = getelementptr inbounds nuw i8, ptr %0, i64 80
  %18 = load ptr, ptr %17, align 8, !tbaa !58
  %19 = getelementptr inbounds nuw i8, ptr %18, i64 456
  store i32 0, ptr %19, align 8, !tbaa !90
  %20 = load ptr, ptr %17, align 8, !tbaa !58
  %21 = getelementptr inbounds nuw i8, ptr %20, i64 460
  store i16 0, ptr %21, align 4, !tbaa !90
  br label %22

22:                                               ; preds = %16, %26
  %.03761 = phi i64 [ 0, %16 ], [ %27, %26 ]
  %23 = getelementptr inbounds nuw [13 x %struct.tls_extension], ptr @kExtensions, i64 0, i64 %.03761, i32 1
  %24 = load ptr, ptr %23, align 8, !tbaa !111
  %.not50 = icmp eq ptr %24, null
  br i1 %.not50, label %26, label %25

25:                                               ; preds = %22
  call void %24(ptr noundef %0) #21
  br label %26

26:                                               ; preds = %22, %25
  %27 = add nuw nsw i64 %.03761, 1
  %exitcond.not = icmp eq i64 %27, 13
  br i1 %exitcond.not, label %.preheader, label %22, !llvm.loop !112

.preheader:                                       ; preds = %26, %45
  %.13862 = phi i64 [ %46, %45 ], [ 0, %26 ]
  %28 = call i64 @CBB_len(ptr noundef nonnull %4) #21
  %29 = getelementptr inbounds nuw [13 x %struct.tls_extension], ptr @kExtensions, i64 0, i64 %.13862
  %30 = getelementptr inbounds nuw i8, ptr %29, i64 16
  %31 = load ptr, ptr %30, align 16, !tbaa !113
  %32 = call i32 %31(ptr noundef %0, ptr noundef nonnull %4) #21
  %.not48 = icmp eq i32 %32, 0
  br i1 %.not48, label %42, label %33

33:                                               ; preds = %.preheader
  %34 = call i64 @CBB_len(ptr noundef nonnull %4) #21
  %.not49 = icmp eq i64 %34, %28
  br i1 %.not49, label %45, label %35

35:                                               ; preds = %33
  %36 = trunc nuw nsw i64 %.13862 to i32
  %37 = shl nuw nsw i32 1, %36
  %38 = load ptr, ptr %17, align 8, !tbaa !58
  %39 = getelementptr inbounds nuw i8, ptr %38, i64 456
  %40 = load i32, ptr %39, align 8, !tbaa !90
  %41 = or i32 %40, %37
  store i32 %41, ptr %39, align 8, !tbaa !90
  br label %45

42:                                               ; preds = %.preheader
  call void @ERR_put_error(i32 noundef 16, i32 noundef 0, i32 noundef 147, ptr noundef nonnull @.str, i32 noundef 2069) #21
  %43 = load i16, ptr %29, align 16, !tbaa !106
  %44 = zext i16 %43 to i32
  call void (ptr, ...) @ERR_add_error_dataf(ptr noundef nonnull @.str.1, i32 noundef %44) #21
  br label %75

45:                                               ; preds = %35, %33
  %46 = add nuw nsw i64 %.13862, 1
  %exitcond64.not = icmp eq i64 %46, 13
  br i1 %exitcond64.not, label %47, label %.preheader, !llvm.loop !114

47:                                               ; preds = %45
  %48 = call i32 @custom_ext_add_clienthello(ptr noundef %0, ptr noundef nonnull %4) #21
  %.not43 = icmp eq i32 %48, 0
  br i1 %.not43, label %75, label %49

49:                                               ; preds = %47
  %50 = getelementptr inbounds nuw i8, ptr %0, i64 8
  %51 = load ptr, ptr %50, align 8, !tbaa !18
  %52 = load i8, ptr %51, align 8, !tbaa !42
  %.not44 = icmp eq i8 %52, 0
  br i1 %.not44, label %53, label %69

53:                                               ; preds = %49
  %54 = call i64 @CBB_len(ptr noundef nonnull %4) #21
  %55 = add i64 %2, 2
  %56 = add i64 %55, %54
  %57 = and i64 %56, -256
  %or.cond = icmp eq i64 %57, 256
  br i1 %or.cond, label %58, label %69

58:                                               ; preds = %53
  %59 = icmp samesign ult i64 %56, 508
  %60 = sub nuw nsw i64 508, %56
  %.0 = select i1 %59, i64 %60, i64 1
  call void @llvm.lifetime.start.p0(i64 8, ptr nonnull %5) #21
  %61 = call i32 @CBB_add_u16(ptr noundef nonnull %4, i16 noundef zeroext 21) #21
  %.not45 = icmp eq i32 %61, 0
  br i1 %.not45, label %.thread58, label %62

62:                                               ; preds = %58
  %63 = trunc nuw nsw i64 %.0 to i16
  %64 = call i32 @CBB_add_u16(ptr noundef nonnull %4, i16 noundef zeroext %63) #21
  %.not46 = icmp eq i32 %64, 0
  br i1 %.not46, label %.thread58, label %65

65:                                               ; preds = %62
  %66 = call i32 @CBB_add_space(ptr noundef nonnull %4, ptr noundef nonnull %5, i64 noundef %.0) #21
  %.not47 = icmp eq i32 %66, 0
  br i1 %.not47, label %.thread58, label %67

.thread58:                                        ; preds = %65, %62, %58
  call void @llvm.lifetime.end.p0(i64 8, ptr nonnull %5) #21
  br label %75

67:                                               ; preds = %65
  %68 = load ptr, ptr %5, align 8, !tbaa !51
  call void @llvm.memset.p0.i64(ptr align 1 %68, i8 0, i64 %.0, i1 false)
  call void @llvm.lifetime.end.p0(i64 8, ptr nonnull %5) #21
  br label %69

69:                                               ; preds = %67, %53, %49
  %70 = call i64 @CBB_len(ptr noundef nonnull %4) #21
  %71 = icmp eq i64 %70, 0
  br i1 %71, label %72, label %73

72:                                               ; preds = %69
  call void @CBB_discard_child(ptr noundef %1) #21
  br label %73

73:                                               ; preds = %72, %69
  %74 = call i32 @CBB_flush(ptr noundef %1) #21
  br label %76

75:                                               ; preds = %.thread58, %42, %47, %14
  call void @ERR_put_error(i32 noundef 16, i32 noundef 0, i32 noundef 68, ptr noundef nonnull @.str, i32 noundef 2120) #21
  br label %76

76:                                               ; preds = %75, %73
  %.136 = phi i32 [ 0, %75 ], [ %74, %73 ]
  call void @llvm.lifetime.end.p0(i64 32, ptr nonnull %4) #21
  br label %77

77:                                               ; preds = %9, %76
  %.035 = phi i32 [ %.136, %76 ], [ 1, %9 ]
  ret i32 %.035
}